; Function Attrs: mustprogress uwtable
define void @_ZN3zmq5req_tC2EPNS_5ctx_tEji(ptr noundef nonnull align 8 dereferenceable(1960) %this, ptr noundef %parent_, i32 noundef %tid_, i32 noundef %sid_) unnamed_addr #0 align 2 personality ptr @__gxx_personality_v0 {
entry:
  tail call void @_ZN3zmq8dealer_tC2EPNS_5ctx_tEji(ptr noundef nonnull align 8 dereferenceable(1929) %this, ptr noundef %parent_, i32 noundef %tid_, i32 noundef %sid_)
  store ptr getelementptr inbounds ({ [47 x ptr], [4 x ptr], [7 x ptr], [8 x ptr] }, ptr @_ZTVN3zmq5req_tE, i64 0, i32 0, i64 2), ptr %this, align 8
  %add.ptr = getelementptr inbounds i8, ptr %this, i64 1448
  store ptr getelementptr inbounds ({ [47 x ptr], [4 x ptr], [7 x ptr], [8 x ptr] }, ptr @_ZTVN3zmq5req_tE, i64 0, i32 1, i64 2), ptr %add.ptr, align 8
  %add.ptr2 = getelementptr inbounds i8, ptr %this, i64 1464
  store ptr getelementptr inbounds ({ [47 x ptr], [4 x ptr], [7 x ptr], [8 x ptr] }, ptr @_ZTVN3zmq5req_tE, i64 0, i32 2, i64 2), ptr %add.ptr2, align 8
  %add.ptr3 = getelementptr inbounds i8, ptr %this, i64 1472
  store ptr getelementptr inbounds ({ [47 x ptr], [4 x ptr], [7 x ptr], [8 x ptr] }, ptr @_ZTVN3zmq5req_tE, i64 0, i32 3, i64 2), ptr %add.ptr3, align 8
  %_receiving_reply = getelementptr inbounds i8, ptr %this, i64 1929
  store i8 0, ptr %_receiving_reply, align 1
  %_message_begins = getelementptr inbounds i8, ptr %this, i64 1930
  store i8 1, ptr %_message_begins, align 2
  %_reply_pipe = getelementptr inbounds i8, ptr %this, i64 1936
  store ptr null, ptr %_reply_pipe, align 8
  %_request_id_frames_enabled = getelementptr inbounds i8, ptr %this, i64 1944
  store i8 0, ptr %_request_id_frames_enabled, align 8
  %call = invoke noundef i32 @_ZN3zmq15generate_randomEv()
          to label %invoke.cont unwind label %lpad

invoke.cont:                                      ; preds = %entry
  %_request_id = getelementptr inbounds i8, ptr %this, i64 1948
  store i32 %call, ptr %_request_id, align 4
  %_strict = getelementptr inbounds i8, ptr %this, i64 1952
  store i8 1, ptr %_strict, align 8
  %type = getelementptr inbounds i8, ptr %this, i64 332
  store i8 3, ptr %type, align 4
  ret void

lpad:                                             ; preds = %entry
  %0 = landingpad { ptr, i32 }
          cleanup
  tail call void @_ZN3zmq8dealer_tD2Ev(ptr noundef nonnull align 8 dereferenceable(1929) %this) #9
  resume { ptr, i32 } %0
}